target datalayout = "e-m:e-p270:32:32-p271:32:32-p272:64:64-i64:64-i128:128-f80:128-n8:16:32:64-S128"
target triple = "x86_64-pc-linux-gnu"

%struct.ws_mempbrk_pattern = type { [256 x i8], i8, <2 x i64> }

@.str.176 = private unnamed_addr constant [7 x i8] c"MEGACO\00", align 1
@.str.177 = private unnamed_addr constant [7 x i8] c"megaco\00", align 1
@proto_megaco = internal global i32 0, align 4
@megaco_text_handle = internal global ptr null, align 8
@.str.178 = private unnamed_addr constant [17 x i8] c"display_raw_text\00", align 1
@.str.179 = private unnamed_addr constant [36 x i8] c"Display raw text for MEGACO message\00", align 1
@.str.180 = private unnamed_addr constant [121 x i8] c"Specifies that the raw text of the MEGACO message should be displayed instead of (or in addition to) the dissection tree\00", align 1
@global_megaco_raw_text = internal global i8 1, align 1
@.str.181 = private unnamed_addr constant [21 x i8] c"display_dissect_tree\00", align 1
@.str.182 = private unnamed_addr constant [43 x i8] c"Display tree dissection for MEGACO message\00", align 1
@.str.183 = private unnamed_addr constant [121 x i8] c"Specifies that the dissection tree of the MEGACO message should be displayed instead of (or in addition to) the raw text\00", align 1
@global_megaco_dissect_tree = internal global i8 1, align 1
@.str.184 = private unnamed_addr constant [9 x i8] c"ctx_info\00", align 1
@.str.185 = private unnamed_addr constant [14 x i8] c"Track Context\00", align 1
@.str.186 = private unnamed_addr constant [104 x i8] c"Maintain relationships between transactions and contexts and display an extra tree showing context data\00", align 1
@keep_persistent_data = internal global i8 0, align 1
@megaco_tap = internal global i32 0, align 4
@pbrk_whitespace = internal global %struct.ws_mempbrk_pattern zeroinitializer, align 16
@.str.187 = private unnamed_addr constant [5 x i8] c" \09\0D\0A\00", align 1
@pbrk_braces = internal global %struct.ws_mempbrk_pattern zeroinitializer, align 16
@.str.188 = private unnamed_addr constant [3 x i8] c"{}\00", align 1

; Function Attrs: null_pointer_is_valid sspstrong uwtable
define hidden void @proto_register_megaco() #0 {
  %1 = alloca ptr, align 8
  %2 = alloca ptr, align 8
  call void @llvm.lifetime.start.p0(i64 8, ptr %1) #12
  call void @llvm.lifetime.start.p0(i64 8, ptr %2) #12
  %3 = call i32 @proto_register_protocol(ptr noundef @.str.176, ptr noundef @.str.176, ptr noundef @.str.177)
  store i32 %3, ptr @proto_megaco, align 4
  %4 = load i32, ptr @proto_megaco, align 4
  %5 = call ptr @register_dissector(ptr noundef @.str.177, ptr noundef @dissect_megaco_text, i32 noundef %4)
  store ptr %5, ptr @megaco_text_handle, align 8
  %6 = load i32, ptr @proto_megaco, align 4
  call void @proto_register_field_array(i32 noundef %6, ptr noundef @proto_register_megaco.hf, i32 noundef 62)
  call void @proto_register_subtree_array(ptr noundef @proto_register_megaco.ett, i32 noundef 27)
  %7 = load i32, ptr @proto_megaco, align 4
  %8 = call ptr @expert_register_protocol(i32 noundef %7)
  store ptr %8, ptr %2, align 8
  %9 = load ptr, ptr %2, align 8
  call void @expert_register_field_array(ptr noundef %9, ptr noundef @proto_register_megaco.ei, i32 noundef 10)
  %10 = load i32, ptr @proto_megaco, align 4
  %11 = call ptr @prefs_register_protocol(i32 noundef %10, ptr noundef null)
  store ptr %11, ptr %1, align 8
  %12 = load ptr, ptr %1, align 8
  call void @prefs_register_bool_preference(ptr noundef %12, ptr noundef @.str.178, ptr noundef @.str.179, ptr noundef @.str.180, ptr noundef @global_megaco_raw_text)
  %13 = load ptr, ptr %1, align 8
  call void @prefs_register_bool_preference(ptr noundef %13, ptr noundef @.str.181, ptr noundef @.str.182, ptr noundef @.str.183, ptr noundef @global_megaco_dissect_tree)
  %14 = load ptr, ptr %1, align 8
  call void @prefs_register_bool_preference(ptr noundef %14, ptr noundef @.str.184, ptr noundef @.str.185, ptr noundef @.str.186, ptr noundef @keep_persistent_data)
  %15 = call i32 @register_tap(ptr noundef @.str.177)
  store i32 %15, ptr @megaco_tap, align 4
  call void @ws_mempbrk_compile(ptr noundef @pbrk_whitespace, ptr noundef @.str.187)
  call void @ws_mempbrk_compile(ptr noundef @pbrk_braces, ptr noundef @.str.188)
  %16 = load i32, ptr @proto_megaco, align 4
  call void @register_rtd_table(i32 noundef %16, ptr noundef null, i32 noundef 1, i32 noundef 12, ptr noundef @megaco_message_type, ptr noundef @megacostat_packet, ptr noundef @megacostat_filtercheck)
  call void @llvm.lifetime.end.p0(i64 8, ptr %2) #12
  call void @llvm.lifetime.end.p0(i64 8, ptr %1) #12
  ret void
}