; Function Attrs: null_pointer_is_valid sspstrong uwtable
define hidden void @proto_register_megaco() local_unnamed_addr #0 {
  %1 = tail call i32 @proto_register_protocol(ptr noundef nonnull @.str.176, ptr noundef nonnull @.str.176, ptr noundef nonnull @.str.177)
  store i32 %1, ptr @proto_megaco, align 4
  %2 = tail call ptr @register_dissector(ptr noundef nonnull @.str.177, ptr noundef nonnull @dissect_megaco_text, i32 noundef %1)
  store ptr %2, ptr @megaco_text_handle, align 8
  %3 = load i32, ptr @proto_megaco, align 4
  tail call void @proto_register_field_array(i32 noundef %3, ptr noundef nonnull @proto_register_megaco.hf, i32 noundef 62)
  tail call void @proto_register_subtree_array(ptr noundef nonnull @proto_register_megaco.ett, i32 noundef 27)
  %4 = load i32, ptr @proto_megaco, align 4
  %5 = tail call ptr @expert_register_protocol(i32 noundef %4)
  tail call void @expert_register_field_array(ptr noundef %5, ptr noundef nonnull @proto_register_megaco.ei, i32 noundef 10)
  %6 = load i32, ptr @proto_megaco, align 4
  %7 = tail call ptr @prefs_register_protocol(i32 noundef %6, ptr noundef null)
  tail call void @prefs_register_bool_preference(ptr noundef %7, ptr noundef nonnull @.str.178, ptr noundef nonnull @.str.179, ptr noundef nonnull @.str.180, ptr noundef nonnull @global_megaco_raw_text)
  tail call void @prefs_register_bool_preference(ptr noundef %7, ptr noundef nonnull @.str.181, ptr noundef nonnull @.str.182, ptr noundef nonnull @.str.183, ptr noundef nonnull @global_megaco_dissect_tree)
  tail call void @prefs_register_bool_preference(ptr noundef %7, ptr noundef nonnull @.str.184, ptr noundef nonnull @.str.185, ptr noundef nonnull @.str.186, ptr noundef nonnull @keep_persistent_data)
  %8 = tail call i32 @register_tap(ptr noundef nonnull @.str.177)
  store i32 %8, ptr @megaco_tap, align 4
  tail call void @ws_mempbrk_compile(ptr noundef nonnull @pbrk_whitespace, ptr noundef nonnull @.str.187)
  tail call void @ws_mempbrk_compile(ptr noundef nonnull @pbrk_braces, ptr noundef nonnull @.str.188)
  %9 = load i32, ptr @proto_megaco, align 4
  tail call void @register_rtd_table(i32 noundef %9, ptr noundef null, i32 noundef 1, i32 noundef 12, ptr noundef nonnull @megaco_message_type, ptr noundef nonnull @megacostat_packet, ptr noundef nonnull @megacostat_filtercheck)
  ret void
}